; ModuleID = '34/3335.c'
source_filename = "34/3335.c"
target datalayout = "e-m:e-p270:32:32-p271:32:32-p272:64:64-i64:64-f80:128-n8:16:32:64-S128"
target triple = "x86_64-pc-linux-gnu"

@.str = private unnamed_addr constant [11 x i8] c"%d*3+1=%d\0A\00", align 1
@.str.1 = private unnamed_addr constant [9 x i8] c"%d/2=%d\0A\00", align 1
@.str.2 = private unnamed_addr constant [3 x i8] c"%d\00", align 1
@.str.3 = private unnamed_addr constant [5 x i8] c"End\0A\00", align 1

; Function Attrs: noinline nounwind uwtable
define dso_local i32 @function(i32 %0) #0 {
  %2 = alloca i32, align 4
  %3 = alloca i32, align 4
  %4 = alloca i32, align 4
  store i32 %0, i32* %3, align 4
  %5 = load i32, i32* %3, align 4
  %6 = srem i32 %5, 2
  %7 = icmp eq i32 %6, 1
  br i1 %7, label %8, label %16

8:                                                ; preds = %1
  %9 = load i32, i32* %3, align 4
  %10 = mul nsw i32 3, %9
  %11 = add nsw i32 %10, 1
  store i32 %11, i32* %4, align 4
  %12 = load i32, i32* %3, align 4
  %13 = load i32, i32* %4, align 4
  %14 = call i32 (i8*, ...) @printf(i8* getelementptr inbounds ([11 x i8], [11 x i8]* @.str, i64 0, i64 0), i32 %12, i32 %13)
  %15 = load i32, i32* %4, align 4
  store i32 %15, i32* %2, align 4
  br label %28

16:                                               ; preds = %1
  %17 = load i32, i32* %3, align 4
  %18 = srem i32 %17, 2
  %19 = icmp eq i32 %18, 0
  br i1 %19, label %20, label %27

20:                                               ; preds = %16
  %21 = load i32, i32* %3, align 4
  %22 = sdiv i32 %21, 2
  store i32 %22, i32* %4, align 4
  %23 = load i32, i32* %3, align 4
  %24 = load i32, i32* %4, align 4
  %25 = call i32 (i8*, ...) @printf(i8* getelementptr inbounds ([9 x i8], [9 x i8]* @.str.1, i64 0, i64 0), i32 %23, i32 %24)
  %26 = load i32, i32* %4, align 4
  store i32 %26, i32* %2, align 4
  br label %28

27:                                               ; preds = %16
  br label %28

28:                                               ; preds = %8, %20, %27
  %29 = load i32, i32* %2, align 4
  ret i32 %29
}

declare dso_local i32 @printf(i8*, ...) #1

; Function Attrs: noinline nounwind uwtable
define dso_local void @main() #0 {
  %1 = alloca i32, align 4
  %2 = call i32 (i8*, ...) @__isoc99_scanf(i8* getelementptr inbounds ([3 x i8], [3 x i8]* @.str.2, i64 0, i64 0), i32* %1)
  %3 = load i32, i32* %1, align 4
  %4 = icmp eq i32 %3, 1
  br i1 %4, label %5, label %7

5:                                                ; preds = %0
  %6 = call i32 (i8*, ...) @printf(i8* getelementptr inbounds ([5 x i8], [5 x i8]* @.str.3, i64 0, i64 0))
  br label %17

7:                                                ; preds = %0
  br label %8

8:                                                ; preds = %7, %15
  %9 = load i32, i32* %1, align 4
  %10 = call i32 @function(i32 %9)
  store i32 %10, i32* %1, align 4
  %11 = load i32, i32* %1, align 4
  %12 = icmp eq i32 %11, 1
  br i1 %12, label %13, label %15

13:                                               ; preds = %8
  %14 = call i32 (i8*, ...) @printf(i8* getelementptr inbounds ([5 x i8], [5 x i8]* @.str.3, i64 0, i64 0))
  br label %16

15:                                               ; preds = %8
  br label %8

16:                                               ; preds = %13
  br label %17

17:                                               ; preds = %16, %5
  ret void
}

declare dso_local i32 @__isoc99_scanf(i8*, ...) #1


!llvm.module.flags = !{!0}
!llvm.ident = !{!1}

!0 = !{i32 1, !"wchar_size", i32 4}
!1 = !{!"clang version 10.0.0-4ubuntu1 "}
